target datalayout = "e-m:e-p270:32:32-p271:32:32-p272:64:64-i64:64-i128:128-f80:128-n8:16:32:64-S128"
target triple = "x86_64-pc-linux-gnu"

%struct.cLLog_private = type { i32, i32, [5 x i8], [5 x i8], [20 x i8], i32, i32, %struct.cCLLog_timeStamp_t, [20 x i8], i8, i8, i8, i8, i8, i8, i32, i32, i32, [7 x ptr], %struct.cCLLog_timeStamp_t }
%struct.cCLLog_timeStamp_t = type { i64, i16 }

@.str.28 = private unnamed_addr constant [29 x i8] c"cllog: %s value is not valid\00", align 1
@.str.29 = private unnamed_addr constant [13 x i8] c"split number\00", align 1

; Function Attrs: null_pointer_is_valid sspstrong uwtable
define internal zeroext i1 @parseUnsigned(ptr noundef %0, ptr noundef %1, ptr noundef %2, ptr noundef %3, ptr noundef %4) #0 {
  %6 = alloca i1, align 1
  %7 = alloca ptr, align 8
  %8 = alloca ptr, align 8
  %9 = alloca ptr, align 8
  %10 = alloca ptr, align 8
  %11 = alloca ptr, align 8
  %12 = alloca i32, align 4
  %13 = alloca i32, align 4
  store ptr %0, ptr %7, align 8
  store ptr %1, ptr %8, align 8
  store ptr %2, ptr %9, align 8
  store ptr %3, ptr %10, align 8
  store ptr %4, ptr %11, align 8
  call void @llvm.lifetime.start.p0(i64 4, ptr %12) #13
  %14 = load ptr, ptr %7, align 8
  %15 = call zeroext i1 @ws_strtou32(ptr noundef %14, ptr noundef null, ptr noundef %12)
  br i1 %15, label %21, label %16

16:                                               ; preds = %5
  %17 = load ptr, ptr %10, align 8
  store i32 -13, ptr %17, align 4
  %18 = load ptr, ptr %9, align 8
  %19 = call noalias ptr (ptr, ptr, ...) @wmem_strdup_printf(ptr noundef null, ptr noundef @.str.28, ptr noundef %18)
  %20 = load ptr, ptr %11, align 8
  store ptr %19, ptr %20, align 8
  store i1 false, ptr %6, align 1
  store i32 1, ptr %13, align 4
  br label %24

21:                                               ; preds = %5
  %22 = load i32, ptr %12, align 4
  %23 = load ptr, ptr %8, align 8
  store i32 %22, ptr %23, align 4
  store i1 true, ptr %6, align 1
  store i32 1, ptr %13, align 4
  br label %24

24:                                               ; preds = %21, %16
  call void @llvm.lifetime.end.p0(i64 4, ptr %12) #13
  %25 = load i1, ptr %6, align 1
  ret i1 %25
}

; Function Attrs: null_pointer_is_valid sspstrong uwtable
define internal zeroext i1 @parseLogFileHeaderLine_splitNo(ptr noundef %0, ptr noundef %1, ptr noundef %2, ptr noundef %3) #0 {
  %5 = alloca ptr, align 8
  %6 = alloca ptr, align 8
  %7 = alloca ptr, align 8
  %8 = alloca ptr, align 8
  store ptr %0, ptr %5, align 8
  store ptr %1, ptr %6, align 8
  store ptr %2, ptr %7, align 8
  store ptr %3, ptr %8, align 8
  %9 = load ptr, ptr %6, align 8
  %10 = load ptr, ptr %5, align 8
  %11 = getelementptr inbounds nuw %struct.cLLog_private, ptr %10, i32 0, i32 6
  %12 = load ptr, ptr %7, align 8
  %13 = load ptr, ptr %8, align 8
  %14 = call zeroext i1 @parseUnsigned(ptr noundef %9, ptr noundef %11, ptr noundef @.str.29, ptr noundef %12, ptr noundef %13)
  ret i1 %14
}